target datalayout = "e-m:e-p270:32:32-p271:32:32-p272:64:64-i64:64-i128:128-f80:128-n8:16:32:64-S128"
target triple = "x86_64-pc-linux-gnu"

%struct.JoinPathExtraData = type { ptr, ptr, i8, ptr, %struct.SemiAntiJoinFactors, ptr }
%struct.SemiAntiJoinFactors = type { double, double }
%struct.RelOptInfo = type { i32, i32, ptr, double, i8, i8, i8, ptr, ptr, ptr, ptr, ptr, ptr, ptr, ptr, ptr, ptr, i32, i32, i32, i16, i16, ptr, ptr, ptr, ptr, ptr, ptr, ptr, ptr, i32, double, double, ptr, ptr, ptr, i32, i32, i32, i32, i8, ptr, ptr, ptr, ptr, ptr, %struct.QualCost, i32, ptr, i8, i8, ptr, ptr, ptr, ptr, i32, ptr, i8, ptr, ptr, ptr, ptr, ptr, ptr }
%struct.QualCost = type { double, double }
%struct.List = type { i32, i32, i32, ptr, [0 x %union.ListCell] }
%union.ListCell = type { ptr }
%struct.Path = type { i32, i32, ptr, ptr, ptr, i8, i8, i32, double, i32, double, double, ptr }

; Function Attrs: inlinehint nounwind uwtable
define internal i32 @list_length(ptr noundef %0) #4 {
  %2 = alloca ptr, align 8
  store ptr %0, ptr %2, align 8
  %3 = load ptr, ptr %2, align 8
  %4 = icmp ne ptr %3, null
  br i1 %4, label %5, label %9

5:                                                ; preds = %1
  %6 = load ptr, ptr %2, align 8
  %7 = getelementptr inbounds nuw %struct.List, ptr %6, i32 0, i32 1
  %8 = load i32, ptr %7, align 4
  br label %10

9:                                                ; preds = %1
  br label %10

10:                                               ; preds = %9, %5
  %11 = phi i32 [ %8, %5 ], [ 0, %9 ]
  ret i32 %11
}

; Function Attrs: nounwind uwtable
define internal void @generate_mergejoin_paths(ptr noundef %0, ptr noundef %1, ptr noundef %2, ptr noundef %3, i32 noundef %4, ptr noundef %5, i1 noundef zeroext %6, ptr noundef %7, ptr noundef %8, i1 noundef zeroext %9) #0 {
  %11 = alloca ptr, align 8
  %12 = alloca ptr, align 8
  %13 = alloca ptr, align 8
  %14 = alloca ptr, align 8
  %15 = alloca i32, align 4
  %16 = alloca ptr, align 8
  %17 = alloca i8, align 1
  %18 = alloca ptr, align 8
  %19 = alloca ptr, align 8
  %20 = alloca i8, align 1
  %21 = alloca ptr, align 8
  %22 = alloca ptr, align 8
  %23 = alloca ptr, align 8
  %24 = alloca ptr, align 8
  %25 = alloca ptr, align 8
  %26 = alloca i32, align 4
  %27 = alloca i32, align 4
  %28 = alloca i32, align 4
  %29 = alloca i32, align 4
  %30 = alloca ptr, align 8
  %31 = alloca ptr, align 8
  store ptr %0, ptr %11, align 8
  store ptr %1, ptr %12, align 8
  store ptr %2, ptr %13, align 8
  store ptr %3, ptr %14, align 8
  store i32 %4, ptr %15, align 4
  store ptr %5, ptr %16, align 8
  %32 = zext i1 %6 to i8
  store i8 %32, ptr %17, align 1
  store ptr %7, ptr %18, align 8
  store ptr %8, ptr %19, align 8
  %33 = zext i1 %9 to i8
  store i8 %33, ptr %20, align 1
  call void @llvm.lifetime.start.p0(i64 8, ptr %21) #6
  call void @llvm.lifetime.start.p0(i64 8, ptr %22) #6
  call void @llvm.lifetime.start.p0(i64 8, ptr %23) #6
  call void @llvm.lifetime.start.p0(i64 8, ptr %24) #6
  call void @llvm.lifetime.start.p0(i64 8, ptr %25) #6
  call void @llvm.lifetime.start.p0(i64 4, ptr %26) #6
  %34 = load i32, ptr %15, align 4
  store i32 %34, ptr %26, align 4
  call void @llvm.lifetime.start.p0(i64 4, ptr %27) #6
  call void @llvm.lifetime.start.p0(i64 4, ptr %28) #6
  %35 = load i32, ptr %15, align 4
  %36 = icmp eq i32 %35, 8
  br i1 %36, label %40, label %37

37:                                               ; preds = %10
  %38 = load i32, ptr %15, align 4
  %39 = icmp eq i32 %38, 9
  br i1 %39, label %40, label %41

40:                                               ; preds = %37, %10
  store i32 0, ptr %15, align 4
  br label %41

41:                                               ; preds = %40, %37
  %42 = load ptr, ptr %11, align 8
  %43 = load ptr, ptr %14, align 8
  %44 = getelementptr inbounds nuw %struct.Path, ptr %43, i32 0, i32 12
  %45 = load ptr, ptr %44, align 8
  %46 = load ptr, ptr %16, align 8
  %47 = getelementptr inbounds nuw %struct.JoinPathExtraData, ptr %46, i32 0, i32 1
  %48 = load ptr, ptr %47, align 8
  %49 = call ptr @find_mergeclauses_for_outer_pathkeys(ptr noundef %42, ptr noundef %45, ptr noundef %48)
  store ptr %49, ptr %21, align 8
  %50 = load ptr, ptr %21, align 8
  %51 = icmp eq ptr %50, null
  br i1 %51, label %52, label %58

52:                                               ; preds = %41
  %53 = load i32, ptr %15, align 4
  %54 = icmp eq i32 %53, 2
  br i1 %54, label %55, label %56

55:                                               ; preds = %52
  br label %57

56:                                               ; preds = %52
  store i32 1, ptr %29, align 4
  br label %225

57:                                               ; preds = %55
  br label %58

58:                                               ; preds = %57, %41
  %59 = load i8, ptr %17, align 1, !range !4, !noundef !5
  %60 = trunc i8 %59 to i1
  br i1 %60, label %61, label %70

61:                                               ; preds = %58
  %62 = load ptr, ptr %21, align 8
  %63 = call i32 @list_length(ptr noundef %62)
  %64 = load ptr, ptr %16, align 8
  %65 = getelementptr inbounds nuw %struct.JoinPathExtraData, ptr %64, i32 0, i32 1
  %66 = load ptr, ptr %65, align 8
  %67 = call i32 @list_length(ptr noundef %66)
  %68 = icmp ne i32 %63, %67
  br i1 %68, label %69, label %70

69:                                               ; preds = %61
  store i32 1, ptr %29, align 4
  br label %225

70:                                               ; preds = %61, %58
  %71 = load ptr, ptr %11, align 8
  %72 = load ptr, ptr %21, align 8
  %73 = load ptr, ptr %14, align 8
  %74 = getelementptr inbounds nuw %struct.Path, ptr %73, i32 0, i32 12
  %75 = load ptr, ptr %74, align 8
  %76 = call ptr @make_inner_pathkeys_for_merge(ptr noundef %71, ptr noundef %72, ptr noundef %75)
  store ptr %76, ptr %22, align 8
  %77 = load ptr, ptr %11, align 8
  %78 = load ptr, ptr %12, align 8
  %79 = load ptr, ptr %14, align 8
  %80 = load ptr, ptr %18, align 8
  %81 = load ptr, ptr %19, align 8
  %82 = load ptr, ptr %21, align 8
  %83 = load ptr, ptr %22, align 8
  %84 = load i32, ptr %15, align 4
  %85 = load ptr, ptr %16, align 8
  %86 = load i8, ptr %20, align 1, !range !4, !noundef !5
  %87 = trunc i8 %86 to i1
  call void @try_mergejoin_path(ptr noundef %77, ptr noundef %78, ptr noundef %79, ptr noundef %80, ptr noundef %81, ptr noundef %82, ptr noundef null, ptr noundef %83, i32 noundef %84, ptr noundef %85, i1 noundef zeroext %87)
  %88 = load i32, ptr %26, align 4
  %89 = icmp eq i32 %88, 9
  br i1 %89, label %90, label %91

90:                                               ; preds = %70
  store i32 1, ptr %29, align 4
  br label %225

91:                                               ; preds = %70
  %92 = load ptr, ptr %22, align 8
  %93 = load ptr, ptr %18, align 8
  %94 = getelementptr inbounds nuw %struct.Path, ptr %93, i32 0, i32 12
  %95 = load ptr, ptr %94, align 8
  %96 = call zeroext i1 @pathkeys_contained_in(ptr noundef %92, ptr noundef %95)
  br i1 %96, label %97, label %100

97:                                               ; preds = %91
  %98 = load ptr, ptr %18, align 8
  store ptr %98, ptr %24, align 8
  %99 = load ptr, ptr %18, align 8
  store ptr %99, ptr %25, align 8
  br label %101

100:                                              ; preds = %91
  store ptr null, ptr %24, align 8
  store ptr null, ptr %25, align 8
  br label %101

101:                                              ; preds = %100, %97
  %102 = load ptr, ptr %22, align 8
  %103 = call i32 @list_length(ptr noundef %102)
  store i32 %103, ptr %27, align 4
  %104 = load i32, ptr %27, align 4
  %105 = icmp sgt i32 %104, 1
  br i1 %105, label %106, label %112

106:                                              ; preds = %101
  %107 = load i8, ptr %17, align 1, !range !4, !noundef !5
  %108 = trunc i8 %107 to i1
  br i1 %108, label %112, label %109

109:                                              ; preds = %106
  %110 = load ptr, ptr %22, align 8
  %111 = call ptr @list_copy(ptr noundef %110)
  store ptr %111, ptr %23, align 8
  br label %114

112:                                              ; preds = %106, %101
  %113 = load ptr, ptr %22, align 8
  store ptr %113, ptr %23, align 8
  br label %114

114:                                              ; preds = %112, %109
  %115 = load i32, ptr %27, align 4
  store i32 %115, ptr %28, align 4
  br label %116

116:                                              ; preds = %221, %114
  %117 = load i32, ptr %28, align 4
  %118 = icmp sgt i32 %117, 0
  br i1 %118, label %119, label %224

119:                                              ; preds = %116
  call void @llvm.lifetime.start.p0(i64 8, ptr %30) #6
  call void @llvm.lifetime.start.p0(i64 8, ptr %31) #6
  store ptr null, ptr %31, align 8
  %120 = load ptr, ptr %23, align 8
  %121 = load i32, ptr %28, align 4
  %122 = call ptr @list_truncate(ptr noundef %120, i32 noundef %121)
  store ptr %122, ptr %23, align 8
  %123 = load ptr, ptr %13, align 8
  %124 = getelementptr inbounds nuw %struct.RelOptInfo, ptr %123, i32 0, i32 8
  %125 = load ptr, ptr %124, align 8
  %126 = load ptr, ptr %23, align 8
  %127 = load i8, ptr %20, align 1, !range !4, !noundef !5
  %128 = trunc i8 %127 to i1
  %129 = call ptr @get_cheapest_path_for_pathkeys(ptr noundef %125, ptr noundef %126, ptr noundef null, i32 noundef 1, i1 noundef zeroext %128)
  store ptr %129, ptr %30, align 8
  %130 = load ptr, ptr %30, align 8
  %131 = icmp ne ptr %130, null
  br i1 %131, label %132, label %163

132:                                              ; preds = %119
  %133 = load ptr, ptr %25, align 8
  %134 = icmp eq ptr %133, null
  br i1 %134, label %140, label %135

135:                                              ; preds = %132
  %136 = load ptr, ptr %30, align 8
  %137 = load ptr, ptr %25, align 8
  %138 = call i32 @compare_path_costs(ptr noundef %136, ptr noundef %137, i32 noundef 1)
  %139 = icmp slt i32 %138, 0
  br i1 %139, label %140, label %163

140:                                              ; preds = %135, %132
  %141 = load i32, ptr %28, align 4
  %142 = load i32, ptr %27, align 4
  %143 = icmp slt i32 %141, %142
  br i1 %143, label %144, label %149

144:                                              ; preds = %140
  %145 = load ptr, ptr %11, align 8
  %146 = load ptr, ptr %21, align 8
  %147 = load ptr, ptr %23, align 8
  %148 = call ptr @trim_mergeclauses_for_inner_pathkeys(ptr noundef %145, ptr noundef %146, ptr noundef %147)
  store ptr %148, ptr %31, align 8
  br label %151

149:                                              ; preds = %140
  %150 = load ptr, ptr %21, align 8
  store ptr %150, ptr %31, align 8
  br label %151

151:                                              ; preds = %149, %144
  %152 = load ptr, ptr %11, align 8
  %153 = load ptr, ptr %12, align 8
  %154 = load ptr, ptr %14, align 8
  %155 = load ptr, ptr %30, align 8
  %156 = load ptr, ptr %19, align 8
  %157 = load ptr, ptr %31, align 8
  %158 = load i32, ptr %15, align 4
  %159 = load ptr, ptr %16, align 8
  %160 = load i8, ptr %20, align 1, !range !4, !noundef !5
  %161 = trunc i8 %160 to i1
  call void @try_mergejoin_path(ptr noundef %152, ptr noundef %153, ptr noundef %154, ptr noundef %155, ptr noundef %156, ptr noundef %157, ptr noundef null, ptr noundef null, i32 noundef %158, ptr noundef %159, i1 noundef zeroext %161)
  %162 = load ptr, ptr %30, align 8
  store ptr %162, ptr %25, align 8
  br label %163

163:                                              ; preds = %151, %135, %119
  %164 = load ptr, ptr %13, align 8
  %165 = getelementptr inbounds nuw %struct.RelOptInfo, ptr %164, i32 0, i32 8
  %166 = load ptr, ptr %165, align 8
  %167 = load ptr, ptr %23, align 8
  %168 = load i8, ptr %20, align 1, !range !4, !noundef !5
  %169 = trunc i8 %168 to i1
  %170 = call ptr @get_cheapest_path_for_pathkeys(ptr noundef %166, ptr noundef %167, ptr noundef null, i32 noundef 0, i1 noundef zeroext %169)
  store ptr %170, ptr %30, align 8
  %171 = load ptr, ptr %30, align 8
  %172 = icmp ne ptr %171, null
  br i1 %172, label %173, label %213

173:                                              ; preds = %163
  %174 = load ptr, ptr %24, align 8
  %175 = icmp eq ptr %174, null
  br i1 %175, label %181, label %176

176:                                              ; preds = %173
  %177 = load ptr, ptr %30, align 8
  %178 = load ptr, ptr %24, align 8
  %179 = call i32 @compare_path_costs(ptr noundef %177, ptr noundef %178, i32 noundef 0)
  %180 = icmp slt i32 %179, 0
  br i1 %180, label %181, label %213

181:                                              ; preds = %176, %173
  %182 = load ptr, ptr %30, align 8
  %183 = load ptr, ptr %25, align 8
  %184 = icmp ne ptr %182, %183
  br i1 %184, label %185, label %211

185:                                              ; preds = %181
  %186 = load ptr, ptr %31, align 8
  %187 = icmp eq ptr %186, null
  br i1 %187, label %188, label %200

188:                                              ; preds = %185
  %189 = load i32, ptr %28, align 4
  %190 = load i32, ptr %27, align 4
  %191 = icmp slt i32 %189, %190
  br i1 %191, label %192, label %197

192:                                              ; preds = %188
  %193 = load ptr, ptr %11, align 8
  %194 = load ptr, ptr %21, align 8
  %195 = load ptr, ptr %23, align 8
  %196 = call ptr @trim_mergeclauses_for_inner_pathkeys(ptr noundef %193, ptr noundef %194, ptr noundef %195)
  store ptr %196, ptr %31, align 8
  br label %199

197:                                              ; preds = %188
  %198 = load ptr, ptr %21, align 8
  store ptr %198, ptr %31, align 8
  br label %199

199:                                              ; preds = %197, %192
  br label %200

200:                                              ; preds = %199, %185
  %201 = load ptr, ptr %11, align 8
  %202 = load ptr, ptr %12, align 8
  %203 = load ptr, ptr %14, align 8
  %204 = load ptr, ptr %30, align 8
  %205 = load ptr, ptr %19, align 8
  %206 = load ptr, ptr %31, align 8
  %207 = load i32, ptr %15, align 4
  %208 = load ptr, ptr %16, align 8
  %209 = load i8, ptr %20, align 1, !range !4, !noundef !5
  %210 = trunc i8 %209 to i1
  call void @try_mergejoin_path(ptr noundef %201, ptr noundef %202, ptr noundef %203, ptr noundef %204, ptr noundef %205, ptr noundef %206, ptr noundef null, ptr noundef null, i32 noundef %207, ptr noundef %208, i1 noundef zeroext %210)
  br label %211

211:                                              ; preds = %200, %181
  %212 = load ptr, ptr %30, align 8
  store ptr %212, ptr %24, align 8
  br label %213

213:                                              ; preds = %211, %176, %163
  %214 = load i8, ptr %17, align 1, !range !4, !noundef !5
  %215 = trunc i8 %214 to i1
  br i1 %215, label %216, label %217

216:                                              ; preds = %213
  store i32 2, ptr %29, align 4
  br label %218

217:                                              ; preds = %213
  store i32 0, ptr %29, align 4
  br label %218

218:                                              ; preds = %217, %216
  call void @llvm.lifetime.end.p0(i64 8, ptr %31) #6
  call void @llvm.lifetime.end.p0(i64 8, ptr %30) #6
  %219 = load i32, ptr %29, align 4
  switch i32 %219, label %228 [
    i32 0, label %220
    i32 2, label %224
  ]

220:                                              ; preds = %218
  br label %221

221:                                              ; preds = %220
  %222 = load i32, ptr %28, align 4
  %223 = add i32 %222, -1
  store i32 %223, ptr %28, align 4
  br label %116, !llvm.loop !17

224:                                              ; preds = %218, %116
  store i32 0, ptr %29, align 4
  br label %225

225:                                              ; preds = %224, %90, %69, %56
  call void @llvm.lifetime.end.p0(i64 4, ptr %28) #6
  call void @llvm.lifetime.end.p0(i64 4, ptr %27) #6
  call void @llvm.lifetime.end.p0(i64 4, ptr %26) #6
  call void @llvm.lifetime.end.p0(i64 8, ptr %25) #6
  call void @llvm.lifetime.end.p0(i64 8, ptr %24) #6
  call void @llvm.lifetime.end.p0(i64 8, ptr %23) #6
  call void @llvm.lifetime.end.p0(i64 8, ptr %22) #6
  call void @llvm.lifetime.end.p0(i64 8, ptr %21) #6
  %226 = load i32, ptr %29, align 4
  switch i32 %226, label %228 [
    i32 0, label %227
    i32 1, label %227
  ]

227:                                              ; preds = %225, %225
  ret void

228:                                              ; preds = %225, %218
  unreachable
}