; Function Attrs: nounwind uwtable
define internal fastcc void @generate_mergejoin_paths(ptr noundef %0, ptr noundef %1, ptr noundef readonly captures(none) %2, ptr noundef %3, i32 noundef range(i32 7, 6) %4, ptr noundef nonnull %5, i1 noundef zeroext %6, ptr noundef nonnull %7, ptr noundef %8, i1 noundef zeroext %9) unnamed_addr #0 {
  %11 = icmp eq i32 %4, 9
  %12 = and i32 %4, -2
  %or.cond = icmp eq i32 %12, 8
  %spec.store.select = select i1 %or.cond, i32 0, i32 %4
  %13 = getelementptr inbounds nuw i8, ptr %3, i64 72
  %14 = load ptr, ptr %13, align 8
  %15 = getelementptr inbounds nuw i8, ptr %5, i64 8
  %16 = load ptr, ptr %15, align 8
  %17 = tail call ptr @find_mergeclauses_for_outer_pathkeys(ptr noundef %0, ptr noundef %14, ptr noundef %16) #5
  %18 = icmp ne ptr %17, null
  %19 = icmp eq i32 %spec.store.select, 2
  %or.cond3 = or i1 %19, %18
  br i1 %or.cond3, label %20, label %.loopexit

20:                                               ; preds = %10
  br i1 %6, label %21, label %31

21:                                               ; preds = %20
  %.not.i = icmp eq ptr %17, null
  br i1 %.not.i, label %list_length.exit, label %22

22:                                               ; preds = %21
  %23 = getelementptr inbounds nuw i8, ptr %17, i64 4
  %24 = load i32, ptr %23, align 4
  br label %list_length.exit

list_length.exit:                                 ; preds = %21, %22
  %25 = phi i32 [ %24, %22 ], [ 0, %21 ]
  %26 = load ptr, ptr %15, align 8
  %.not.i109 = icmp eq ptr %26, null
  br i1 %.not.i109, label %list_length.exit110, label %27

27:                                               ; preds = %list_length.exit
  %28 = getelementptr inbounds nuw i8, ptr %26, i64 4
  %29 = load i32, ptr %28, align 4
  br label %list_length.exit110

list_length.exit110:                              ; preds = %list_length.exit, %27
  %30 = phi i32 [ %29, %27 ], [ 0, %list_length.exit ]
  %.not = icmp eq i32 %25, %30
  br i1 %.not, label %31, label %.loopexit

31:                                               ; preds = %list_length.exit110, %20
  %32 = load ptr, ptr %13, align 8
  %33 = tail call ptr @make_inner_pathkeys_for_merge(ptr noundef %0, ptr noundef %17, ptr noundef %32) #5
  tail call fastcc void @try_mergejoin_path(ptr noundef %0, ptr noundef %1, ptr noundef nonnull %3, ptr noundef nonnull %7, ptr noundef %8, ptr noundef %17, ptr noundef null, ptr noundef %33, i32 noundef %spec.store.select, ptr noundef %5, i1 noundef zeroext %9)
  br i1 %11, label %.loopexit, label %34

34:                                               ; preds = %31
  %35 = getelementptr inbounds nuw i8, ptr %7, i64 72
  %36 = load ptr, ptr %35, align 8
  %37 = tail call zeroext i1 @pathkeys_contained_in(ptr noundef %33, ptr noundef %36) #5
  %. = select i1 %37, ptr %7, ptr null
  %.not.i111 = icmp eq ptr %33, null
  br i1 %.not.i111, label %.loopexit, label %list_length.exit112

list_length.exit112:                              ; preds = %34
  %38 = getelementptr inbounds nuw i8, ptr %33, i64 4
  %39 = load i32, ptr %38, align 4
  %40 = icmp slt i32 %39, 2
  %brmerge = or i1 %6, %40
  br i1 %brmerge, label %list_length.exit112.thread, label %list_length.exit112.thread.thread

list_length.exit112.thread.thread:                ; preds = %list_length.exit112
  %41 = tail call ptr @list_copy(ptr noundef nonnull %33) #5
  br label %.lr.ph

list_length.exit112.thread:                       ; preds = %list_length.exit112
  %42 = icmp sgt i32 %39, 0
  br i1 %42, label %.lr.ph, label %.loopexit

.lr.ph:                                           ; preds = %list_length.exit112.thread.thread, %list_length.exit112.thread
  %.094122 = phi ptr [ %41, %list_length.exit112.thread.thread ], [ %33, %list_length.exit112.thread ]
  %43 = getelementptr inbounds nuw i8, ptr %2, i64 40
  br label %44

44:                                               ; preds = %74, %.lr.ph
  %.093118 = phi i32 [ %39, %.lr.ph ], [ %75, %74 ]
  %.195117 = phi ptr [ %.094122, %.lr.ph ], [ %45, %74 ]
  %.197116 = phi ptr [ %., %.lr.ph ], [ %.298, %74 ]
  %.1100115 = phi ptr [ %., %.lr.ph ], [ %.2101, %74 ]
  %45 = tail call ptr @list_truncate(ptr noundef %.195117, i32 noundef %.093118) #5
  %46 = load ptr, ptr %43, align 8
  %47 = tail call ptr @get_cheapest_path_for_pathkeys(ptr noundef %46, ptr noundef %45, ptr noundef null, i32 noundef 1, i1 noundef zeroext %9) #5
  %.not104 = icmp eq ptr %47, null
  br i1 %.not104, label %58, label %48

48:                                               ; preds = %44
  %49 = icmp eq ptr %.197116, null
  br i1 %49, label %53, label %50

50:                                               ; preds = %48
  %51 = tail call i32 @compare_path_costs(ptr noundef nonnull %47, ptr noundef nonnull %.197116, i32 noundef 1) #5
  %52 = icmp slt i32 %51, 0
  br i1 %52, label %53, label %58

53:                                               ; preds = %50, %48
  %54 = icmp slt i32 %.093118, %39
  br i1 %54, label %55, label %57

55:                                               ; preds = %53
  %56 = tail call ptr @trim_mergeclauses_for_inner_pathkeys(ptr noundef %0, ptr noundef %17, ptr noundef %45) #5
  br label %57

57:                                               ; preds = %53, %55
  %.1 = phi ptr [ %56, %55 ], [ %17, %53 ]
  tail call fastcc void @try_mergejoin_path(ptr noundef %0, ptr noundef %1, ptr noundef nonnull %3, ptr noundef nonnull %47, ptr noundef %8, ptr noundef %.1, ptr noundef null, ptr noundef null, i32 noundef %spec.store.select, ptr noundef %5, i1 noundef zeroext %9)
  br label %58

58:                                               ; preds = %57, %50, %44
  %.298 = phi ptr [ %47, %57 ], [ %.197116, %50 ], [ %.197116, %44 ]
  %.0 = phi ptr [ %.1, %57 ], [ null, %50 ], [ null, %44 ]
  %59 = load ptr, ptr %43, align 8
  %60 = tail call ptr @get_cheapest_path_for_pathkeys(ptr noundef %59, ptr noundef %45, ptr noundef null, i32 noundef 0, i1 noundef zeroext %9) #5
  %.not105 = icmp eq ptr %60, null
  br i1 %.not105, label %74, label %61

61:                                               ; preds = %58
  %62 = icmp eq ptr %.1100115, null
  br i1 %62, label %66, label %63

63:                                               ; preds = %61
  %64 = tail call i32 @compare_path_costs(ptr noundef nonnull %60, ptr noundef nonnull %.1100115, i32 noundef 0) #5
  %65 = icmp slt i32 %64, 0
  br i1 %65, label %66, label %74

66:                                               ; preds = %63, %61
  %.not106 = icmp eq ptr %60, %.298
  br i1 %.not106, label %74, label %67

67:                                               ; preds = %66
  %68 = icmp eq ptr %.0, null
  br i1 %68, label %69, label %73

69:                                               ; preds = %67
  %70 = icmp slt i32 %.093118, %39
  br i1 %70, label %71, label %73

71:                                               ; preds = %69
  %72 = tail call ptr @trim_mergeclauses_for_inner_pathkeys(ptr noundef %0, ptr noundef %17, ptr noundef %45) #5
  br label %73

73:                                               ; preds = %69, %71, %67
  %.2 = phi ptr [ %72, %71 ], [ %.0, %67 ], [ %17, %69 ]
  tail call fastcc void @try_mergejoin_path(ptr noundef %0, ptr noundef %1, ptr noundef nonnull %3, ptr noundef nonnull %60, ptr noundef %8, ptr noundef %.2, ptr noundef null, ptr noundef null, i32 noundef %spec.store.select, ptr noundef %5, i1 noundef zeroext %9)
  br label %74

74:                                               ; preds = %66, %73, %63, %58
  %.2101 = phi ptr [ %.1100115, %63 ], [ %.1100115, %58 ], [ %60, %73 ], [ %60, %66 ]
  %75 = add nsw i32 %.093118, -1
  %76 = icmp slt i32 %.093118, 2
  %or.cond127.not = or i1 %76, %6
  br i1 %or.cond127.not, label %.loopexit, label %44, !llvm.loop !6

.loopexit:                                        ; preds = %74, %34, %list_length.exit112.thread, %31, %list_length.exit110, %10
  ret void
}